; Function Attrs: mustprogress nounwind uwtable
define hidden void @_ZN4LIEF5MachO8TrieNodeC2ENSt7__cxx1112basic_stringIcSt11char_traitsIcESaIcEEE(ptr noundef nonnull align 8 dereferenceable(118) %0, ptr noundef nonnull %1) unnamed_addr #1 align 2 {
  tail call void @_ZNSt7__cxx1112basic_stringIcSt11char_traitsIcESaIcEEC1EOS4_(ptr noundef nonnull align 8 dereferenceable(32) %0, ptr noundef nonnull align 8 dereferenceable(32) %1) #19
  %3 = getelementptr inbounds i8, ptr %0, i64 32
  %4 = getelementptr inbounds i8, ptr %0, i64 80
  tail call void @llvm.memset.p0.i64(ptr noundef nonnull align 8 dereferenceable(48) %3, i8 0, i64 48, i1 false)
  tail call void @_ZNSt7__cxx1112basic_stringIcSt11char_traitsIcESaIcEEC1Ev(ptr noundef nonnull align 8 dereferenceable(32) %4) #19
  %5 = getelementptr inbounds i8, ptr %0, i64 112
  store i32 0, ptr %5, align 8
  %6 = getelementptr inbounds i8, ptr %0, i64 116
  store i8 0, ptr %6, align 4
  %7 = getelementptr inbounds i8, ptr %0, i64 117
  store i8 0, ptr %7, align 1
  ret void
}